; Function Attrs: nofree nounwind uwtable
define internal fastcc void @PrintHeader() unnamed_addr #4 {
  %puts = tail call i32 @puts(ptr nonnull dereferenceable(1) @str.8)
  %puts2 = tail call i32 @puts(ptr nonnull dereferenceable(1) @str.9)
  %1 = tail call i32 (ptr, ...) @printf(ptr noundef nonnull dereferenceable(1) @.str.28)
  %puts3 = tail call i32 @puts(ptr nonnull dereferenceable(1) @str.10)
  %2 = tail call i32 (ptr, ...) @printf(ptr noundef nonnull dereferenceable(1) @.str.30, i32 noundef 10, i32 noundef 10)
  %3 = tail call i32 (ptr, ...) @printf(ptr noundef nonnull dereferenceable(1) @.str.31, i32 noundef 100)
  %4 = tail call i32 (ptr, ...) @printf(ptr noundef nonnull dereferenceable(1) @.str.32, double noundef 0.000000e+00, double noundef 1.000000e-03)
  %puts4 = tail call i32 @puts(ptr nonnull dereferenceable(1) @str.11)
  %puts5 = tail call i32 @puts(ptr nonnull dereferenceable(1) @str.12)
  ret void
}